#include <math.h>
#include <stdio.h>
#include <stdlib.h>
#include <string.h>


int main()
{
	int n,i;
	int a[26]={0};
	int aptr[26];//aprt[0]???????????[1]???????????????
	int ap=0,j;
	char tmpch;
	scanf("%d",&n);
	scanf("%c",&tmpch);//????????
	for (i=0;i<n;i++)
	{
		ap=0;
		scanf("%c",&tmpch);
		while(tmpch!='\n')
		{
			if(a[tmpch-'a']==0)//???????????aptr?
			{
				aptr[ap++]=tmpch-'a';
			}
			a[tmpch-'a']++;//tmpch??????
			scanf("%c",&tmpch);
		}
		for(j=0;j<ap;j++)
		{
			if(a[aptr[j]]==1)
				break;
		}
		if (j<ap)
		{
			printf("%c\n",aptr[j]+'a');
		} 
		else
		{
			printf("no\n");
		}
		for (j=0;j<26;j++)
		{
			a[j]=0;
		}
	}
	return 0;
}